target datalayout = "e-m:e-p270:32:32-p271:32:32-p272:64:64-i64:64-i128:128-f80:128-n8:16:32:64-S128"
target triple = "x86_64-pc-linux-gnu"

%struct.AVIOContext = type { ptr, ptr, i32, ptr, ptr, ptr, ptr, ptr, ptr, i64, i32, i32, i32, i32, i32, i64, ptr, ptr, ptr, ptr, i32, i32, ptr, ptr, ptr, i32, ptr, i64, i64 }

; Function Attrs: nounwind uwtable
define void @ffio_fill(ptr noundef %0, i32 noundef %1, i64 noundef %2) #0 {
  %4 = alloca ptr, align 8
  %5 = alloca i32, align 4
  %6 = alloca i64, align 8
  %7 = alloca i32, align 4
  store ptr %0, ptr %4, align 8, !tbaa !14
  store i32 %1, ptr %5, align 4, !tbaa !11
  store i64 %2, ptr %6, align 8, !tbaa !53
  br label %8

8:                                                ; preds = %60, %3
  %9 = load i64, ptr %6, align 8, !tbaa !53
  %10 = icmp sgt i64 %9, 0
  br i1 %10, label %11, label %65

11:                                               ; preds = %8
  call void @llvm.lifetime.start.p0(i64 4, ptr %7) #12
  %12 = load ptr, ptr %4, align 8, !tbaa !14
  %13 = getelementptr inbounds nuw %struct.AVIOContext, ptr %12, i32 0, i32 4
  %14 = load ptr, ptr %13, align 8, !tbaa !38
  %15 = load ptr, ptr %4, align 8, !tbaa !14
  %16 = getelementptr inbounds nuw %struct.AVIOContext, ptr %15, i32 0, i32 3
  %17 = load ptr, ptr %16, align 8, !tbaa !23
  %18 = ptrtoint ptr %14 to i64
  %19 = ptrtoint ptr %17 to i64
  %20 = sub i64 %18, %19
  %21 = load i64, ptr %6, align 8, !tbaa !53
  %22 = icmp sgt i64 %20, %21
  br i1 %22, label %23, label %25

23:                                               ; preds = %11
  %24 = load i64, ptr %6, align 8, !tbaa !53
  br label %35

25:                                               ; preds = %11
  %26 = load ptr, ptr %4, align 8, !tbaa !14
  %27 = getelementptr inbounds nuw %struct.AVIOContext, ptr %26, i32 0, i32 4
  %28 = load ptr, ptr %27, align 8, !tbaa !38
  %29 = load ptr, ptr %4, align 8, !tbaa !14
  %30 = getelementptr inbounds nuw %struct.AVIOContext, ptr %29, i32 0, i32 3
  %31 = load ptr, ptr %30, align 8, !tbaa !23
  %32 = ptrtoint ptr %28 to i64
  %33 = ptrtoint ptr %31 to i64
  %34 = sub i64 %32, %33
  br label %35

35:                                               ; preds = %25, %23
  %36 = phi i64 [ %24, %23 ], [ %34, %25 ]
  %37 = trunc i64 %36 to i32
  store i32 %37, ptr %7, align 4, !tbaa !11
  %38 = load ptr, ptr %4, align 8, !tbaa !14
  %39 = getelementptr inbounds nuw %struct.AVIOContext, ptr %38, i32 0, i32 3
  %40 = load ptr, ptr %39, align 8, !tbaa !23
  %41 = load i32, ptr %5, align 4, !tbaa !11
  %42 = trunc i32 %41 to i8
  %43 = load i32, ptr %7, align 4, !tbaa !11
  %44 = sext i32 %43 to i64
  call void @llvm.memset.p0.i64(ptr align 1 %40, i8 %42, i64 %44, i1 false)
  %45 = load i32, ptr %7, align 4, !tbaa !11
  %46 = load ptr, ptr %4, align 8, !tbaa !14
  %47 = getelementptr inbounds nuw %struct.AVIOContext, ptr %46, i32 0, i32 3
  %48 = load ptr, ptr %47, align 8, !tbaa !23
  %49 = sext i32 %45 to i64
  %50 = getelementptr inbounds i8, ptr %48, i64 %49
  store ptr %50, ptr %47, align 8, !tbaa !23
  %51 = load ptr, ptr %4, align 8, !tbaa !14
  %52 = getelementptr inbounds nuw %struct.AVIOContext, ptr %51, i32 0, i32 3
  %53 = load ptr, ptr %52, align 8, !tbaa !23
  %54 = load ptr, ptr %4, align 8, !tbaa !14
  %55 = getelementptr inbounds nuw %struct.AVIOContext, ptr %54, i32 0, i32 4
  %56 = load ptr, ptr %55, align 8, !tbaa !38
  %57 = icmp uge ptr %53, %56
  br i1 %57, label %58, label %60

58:                                               ; preds = %35
  %59 = load ptr, ptr %4, align 8, !tbaa !14
  call void @flush_buffer(ptr noundef %59)
  br label %60

60:                                               ; preds = %58, %35
  %61 = load i32, ptr %7, align 4, !tbaa !11
  %62 = sext i32 %61 to i64
  %63 = load i64, ptr %6, align 8, !tbaa !53
  %64 = sub nsw i64 %63, %62
  store i64 %64, ptr %6, align 8, !tbaa !53
  call void @llvm.lifetime.end.p0(i64 4, ptr %7) #12
  br label %8, !llvm.loop !54

65:                                               ; preds = %8
  ret void
}