; Function Attrs: nounwind uwtable
define void @ffio_fill(ptr noundef captures(none) %0, i32 noundef %1, i64 noundef %2) local_unnamed_addr #3 {
  %4 = icmp sgt i64 %2, 0
  br i1 %4, label %.lr.ph, label %._crit_edge

.lr.ph:                                           ; preds = %3
  %5 = getelementptr inbounds nuw i8, ptr %0, i64 32
  %6 = getelementptr inbounds nuw i8, ptr %0, i64 24
  %7 = trunc i32 %1 to i8
  br label %8

8:                                                ; preds = %.lr.ph, %19
  %.017 = phi i64 [ %2, %.lr.ph ], [ %20, %19 ]
  %9 = load ptr, ptr %5, align 8, !tbaa !19
  %10 = load ptr, ptr %6, align 8, !tbaa !16
  %11 = ptrtoint ptr %9 to i64
  %12 = ptrtoint ptr %10 to i64
  %13 = sub i64 %11, %12
  %.0. = tail call i64 @llvm.smin.i64(i64 %13, i64 %.017)
  %sext = shl i64 %.0., 32
  %14 = ashr exact i64 %sext, 32
  tail call void @llvm.memset.p0.i64(ptr align 1 %10, i8 %7, i64 %14, i1 false)
  %15 = load ptr, ptr %6, align 8, !tbaa !16
  %16 = getelementptr inbounds i8, ptr %15, i64 %14
  store ptr %16, ptr %6, align 8, !tbaa !16
  %17 = load ptr, ptr %5, align 8, !tbaa !19
  %.not = icmp ult ptr %16, %17
  br i1 %.not, label %19, label %18

18:                                               ; preds = %8
  tail call fastcc void @flush_buffer(ptr noundef nonnull %0)
  br label %19

19:                                               ; preds = %18, %8
  %20 = sub nsw i64 %.017, %14
  %21 = icmp sgt i64 %20, 0
  br i1 %21, label %8, label %._crit_edge, !llvm.loop !42

._crit_edge:                                      ; preds = %19, %3
  ret void
}